; Function Attrs: mustprogress uwtable
define internal fastcc noundef ptr @_ZN17duckdb_libpgqueryL13makeColumnRefEPcPNS_6PGListEiPv(ptr noundef %0, ptr noundef %1, i32 noundef %2, ptr noundef %3) unnamed_addr #0 {
  %5 = tail call noundef ptr @_ZN17duckdb_libpgquery7newNodeEmNS_9PGNodeTagE(i64 noundef 24, i32 noundef 353)
  %6 = getelementptr inbounds nuw i8, ptr %5, i64 16
  store i32 %2, ptr %6, align 8, !tbaa !297
  %.not.i = icmp eq ptr %1, null
  br i1 %.not.i, label %._crit_edge, label %_ZN17duckdb_libpgqueryL9list_headEPKNS_6PGListE.exit

_ZN17duckdb_libpgqueryL9list_headEPKNS_6PGListE.exit: ; preds = %4
  %7 = getelementptr inbounds nuw i8, ptr %1, i64 8
  %8 = load ptr, ptr %7, align 8, !tbaa !72
  %.not46 = icmp eq ptr %8, null
  br i1 %.not46, label %._crit_edge, label %.lr.ph

.lr.ph:                                           ; preds = %_ZN17duckdb_libpgqueryL9list_headEPKNS_6PGListE.exit, %53
  %.03248 = phi ptr [ %56, %53 ], [ %8, %_ZN17duckdb_libpgqueryL9list_headEPKNS_6PGListE.exit ]
  %.03347 = phi i32 [ %54, %53 ], [ 0, %_ZN17duckdb_libpgqueryL9list_headEPKNS_6PGListE.exit ]
  %9 = load ptr, ptr %.03248, align 8, !tbaa !9
  %10 = load i32, ptr %9, align 4, !tbaa !386
  switch i32 %10, label %53 [
    i32 358, label %11
    i32 357, label %49
  ]

11:                                               ; preds = %.lr.ph
  %12 = tail call noundef ptr @_ZN17duckdb_libpgquery7newNodeEmNS_9PGNodeTagE(i64 noundef 24, i32 noundef 359)
  %13 = icmp eq i32 %.03347, 0
  br i1 %13, label %_ZN17duckdb_libpgqueryL9list_headEPKNS_6PGListE.exit.i, label %30

_ZN17duckdb_libpgqueryL9list_headEPKNS_6PGListE.exit.i: ; preds = %11
  %14 = tail call noundef ptr @_ZN17duckdb_libpgquery10makeStringEPKc(ptr noundef %0)
  %15 = tail call noundef ptr @_ZN17duckdb_libpgquery5lconsEPvPNS_6PGListE(ptr noundef %14, ptr noundef null)
  %16 = getelementptr inbounds nuw i8, ptr %5, i64 8
  store ptr %15, ptr %16, align 8, !tbaa !295
  %17 = getelementptr inbounds nuw i8, ptr %1, i64 8
  %18 = load ptr, ptr %17, align 8, !tbaa !72
  %.not8.i = icmp eq ptr %18, null
  br i1 %.not8.i, label %_ZN17duckdb_libpgqueryL17check_indirectionEPNS_6PGListEPv.exit, label %.lr.ph.i

.lr.ph.i:                                         ; preds = %_ZN17duckdb_libpgqueryL9list_headEPKNS_6PGListE.exit.i, %26
  %.09.i = phi ptr [ %28, %26 ], [ %18, %_ZN17duckdb_libpgqueryL9list_headEPKNS_6PGListE.exit.i ]
  %19 = load ptr, ptr %.09.i, align 8, !tbaa !9
  %20 = load i32, ptr %19, align 4, !tbaa !386
  %21 = icmp eq i32 %20, 357
  br i1 %21, label %22, label %26

22:                                               ; preds = %.lr.ph.i
  %23 = getelementptr inbounds nuw i8, ptr %.09.i, i64 8
  %24 = load ptr, ptr %23, align 8, !tbaa !74
  %.not7.i = icmp eq ptr %24, null
  br i1 %.not7.i, label %26, label %25

25:                                               ; preds = %22
  tail call void @_ZN17duckdb_libpgquery15scanner_yyerrorEPKcPv(ptr noundef nonnull @.str.171, ptr noundef %3)
  br label %26

26:                                               ; preds = %25, %22, %.lr.ph.i
  %27 = getelementptr inbounds nuw i8, ptr %.09.i, i64 8
  %28 = load ptr, ptr %27, align 8, !tbaa !74
  %.not.i36 = icmp eq ptr %28, null
  br i1 %.not.i36, label %_ZN17duckdb_libpgqueryL17check_indirectionEPNS_6PGListEPv.exit, label %.lr.ph.i, !llvm.loop !588

_ZN17duckdb_libpgqueryL17check_indirectionEPNS_6PGListEPv.exit: ; preds = %26, %_ZN17duckdb_libpgqueryL9list_headEPKNS_6PGListE.exit.i
  %29 = getelementptr inbounds nuw i8, ptr %12, i64 16
  store ptr %1, ptr %29, align 8, !tbaa !433
  br label %59

30:                                               ; preds = %11
  %31 = tail call noundef ptr @_ZN17duckdb_libpgquery14list_copy_tailEPKNS_6PGListEi(ptr noundef nonnull %1, i32 noundef %.03347)
  %.not.i.i37 = icmp eq ptr %31, null
  br i1 %.not.i.i37, label %_ZN17duckdb_libpgqueryL17check_indirectionEPNS_6PGListEPv.exit44, label %_ZN17duckdb_libpgqueryL9list_headEPKNS_6PGListE.exit.i38

_ZN17duckdb_libpgqueryL9list_headEPKNS_6PGListE.exit.i38: ; preds = %30
  %32 = getelementptr inbounds nuw i8, ptr %31, i64 8
  %33 = load ptr, ptr %32, align 8, !tbaa !72
  %.not8.i39 = icmp eq ptr %33, null
  br i1 %.not8.i39, label %_ZN17duckdb_libpgqueryL17check_indirectionEPNS_6PGListEPv.exit44, label %.lr.ph.i40

.lr.ph.i40:                                       ; preds = %_ZN17duckdb_libpgqueryL9list_headEPKNS_6PGListE.exit.i38, %41
  %.09.i41 = phi ptr [ %43, %41 ], [ %33, %_ZN17duckdb_libpgqueryL9list_headEPKNS_6PGListE.exit.i38 ]
  %34 = load ptr, ptr %.09.i41, align 8, !tbaa !9
  %35 = load i32, ptr %34, align 4, !tbaa !386
  %36 = icmp eq i32 %35, 357
  br i1 %36, label %37, label %41

37:                                               ; preds = %.lr.ph.i40
  %38 = getelementptr inbounds nuw i8, ptr %.09.i41, i64 8
  %39 = load ptr, ptr %38, align 8, !tbaa !74
  %.not7.i43 = icmp eq ptr %39, null
  br i1 %.not7.i43, label %41, label %40

40:                                               ; preds = %37
  tail call void @_ZN17duckdb_libpgquery15scanner_yyerrorEPKcPv(ptr noundef nonnull @.str.171, ptr noundef %3)
  br label %41

41:                                               ; preds = %40, %37, %.lr.ph.i40
  %42 = getelementptr inbounds nuw i8, ptr %.09.i41, i64 8
  %43 = load ptr, ptr %42, align 8, !tbaa !74
  %.not.i42 = icmp eq ptr %43, null
  br i1 %.not.i42, label %_ZN17duckdb_libpgqueryL17check_indirectionEPNS_6PGListEPv.exit44, label %.lr.ph.i40, !llvm.loop !588

_ZN17duckdb_libpgqueryL17check_indirectionEPNS_6PGListEPv.exit44: ; preds = %41, %30, %_ZN17duckdb_libpgqueryL9list_headEPKNS_6PGListE.exit.i38
  %44 = getelementptr inbounds nuw i8, ptr %12, i64 16
  store ptr %31, ptr %44, align 8, !tbaa !433
  %45 = tail call noundef ptr @_ZN17duckdb_libpgquery13list_truncateEPNS_6PGListEi(ptr noundef nonnull %1, i32 noundef %.03347)
  %46 = tail call noundef ptr @_ZN17duckdb_libpgquery10makeStringEPKc(ptr noundef %0)
  %47 = tail call noundef ptr @_ZN17duckdb_libpgquery5lconsEPvPNS_6PGListE(ptr noundef %46, ptr noundef %45)
  %48 = getelementptr inbounds nuw i8, ptr %5, i64 8
  store ptr %47, ptr %48, align 8, !tbaa !295
  br label %59

49:                                               ; preds = %.lr.ph
  %50 = getelementptr inbounds nuw i8, ptr %.03248, i64 8
  %51 = load ptr, ptr %50, align 8, !tbaa !74
  %.not35 = icmp eq ptr %51, null
  br i1 %.not35, label %53, label %52

52:                                               ; preds = %49
  tail call void @_ZN17duckdb_libpgquery15scanner_yyerrorEPKcPv(ptr noundef nonnull @.str.171, ptr noundef %3)
  br label %53

53:                                               ; preds = %.lr.ph, %52, %49
  %54 = add nuw nsw i32 %.03347, 1
  %55 = getelementptr inbounds nuw i8, ptr %.03248, i64 8
  %56 = load ptr, ptr %55, align 8, !tbaa !74
  %.not = icmp eq ptr %56, null
  br i1 %.not, label %._crit_edge, label %.lr.ph, !llvm.loop !609

._crit_edge:                                      ; preds = %53, %4, %_ZN17duckdb_libpgqueryL9list_headEPKNS_6PGListE.exit
  %57 = tail call noundef ptr @_ZN17duckdb_libpgquery10makeStringEPKc(ptr noundef %0)
  %58 = tail call noundef ptr @_ZN17duckdb_libpgquery5lconsEPvPNS_6PGListE(ptr noundef %57, ptr noundef %1)
  br label %59

59:                                               ; preds = %_ZN17duckdb_libpgqueryL17check_indirectionEPNS_6PGListEPv.exit, %_ZN17duckdb_libpgqueryL17check_indirectionEPNS_6PGListEPv.exit44, %._crit_edge
  %.sink53 = phi ptr [ %5, %._crit_edge ], [ %12, %_ZN17duckdb_libpgqueryL17check_indirectionEPNS_6PGListEPv.exit44 ], [ %12, %_ZN17duckdb_libpgqueryL17check_indirectionEPNS_6PGListEPv.exit ]
  %.sink = phi ptr [ %58, %._crit_edge ], [ %5, %_ZN17duckdb_libpgqueryL17check_indirectionEPNS_6PGListEPv.exit44 ], [ %5, %_ZN17duckdb_libpgqueryL17check_indirectionEPNS_6PGListEPv.exit ]
  %60 = getelementptr inbounds nuw i8, ptr %.sink53, i64 8
  store ptr %.sink, ptr %60, align 8, !tbaa !141
  ret ptr %.sink53
}